; Function Attrs: nounwind uwtable
define hidden void @SDL_CameraDisconnected(ptr noundef %0) local_unnamed_addr #1 {
  %2 = alloca %struct.SDL_PendingCameraEvent, align 8
  %.not = icmp eq ptr %0, null
  br i1 %.not, label %45, label %3

3:                                                ; preds = %1
  call void @llvm.lifetime.start.p0(i64 16, ptr nonnull %2) #11
  %4 = getelementptr inbounds nuw i8, ptr %2, i64 8
  store ptr null, ptr %4, align 8
  %5 = getelementptr inbounds nuw i8, ptr %0, i64 20
  %6 = tail call i32 @SDL_AddAtomicInt_REAL(ptr noundef nonnull %5, i32 noundef 1) #11
  %7 = load ptr, ptr %0, align 8
  tail call void @SDL_LockMutex_REAL(ptr noundef %7) #11
  %8 = getelementptr inbounds nuw i8, ptr %0, i64 444
  %9 = tail call zeroext i1 @SDL_CompareAndSwapAtomicInt_REAL(ptr noundef nonnull %8, i32 noundef 0, i32 noundef 1) #11
  br i1 %9, label %10, label %21

10:                                               ; preds = %3
  %11 = getelementptr inbounds nuw i8, ptr %0, i64 24
  store ptr @ZombieWaitDevice, ptr %11, align 8
  %12 = getelementptr inbounds nuw i8, ptr %0, i64 32
  store ptr @ZombieAcquireFrame, ptr %12, align 8
  %13 = getelementptr inbounds nuw i8, ptr %0, i64 40
  store ptr @ZombieReleaseFrame, ptr %13, align 8
  %14 = getelementptr inbounds nuw i8, ptr %0, i64 128
  tail call void @llvm.memset.p0.i64(ptr noundef nonnull align 8 dereferenceable(16) %14, i8 0, i64 16, i1 false)
  %15 = tail call noalias ptr @SDL_malloc_REAL(i64 noundef 16) #11
  %.not23 = icmp eq ptr %15, null
  br i1 %.not23, label %21, label %16

16:                                               ; preds = %10
  store i32 5121, ptr %15, align 8
  %17 = getelementptr inbounds nuw i8, ptr %0, i64 108
  %18 = load i32, ptr %17, align 4
  %19 = getelementptr inbounds nuw i8, ptr %15, i64 4
  store i32 %18, ptr %19, align 4
  %20 = getelementptr inbounds nuw i8, ptr %15, i64 8
  store ptr null, ptr %20, align 8
  store ptr %15, ptr %4, align 8
  br label %21

21:                                               ; preds = %10, %16, %3
  %22 = phi ptr [ null, %3 ], [ %15, %16 ], [ null, %10 ]
  %.0 = phi ptr [ %2, %3 ], [ %15, %16 ], [ %2, %10 ]
  %23 = load ptr, ptr %0, align 8
  tail call void @SDL_UnlockMutex_REAL(ptr noundef %23) #11
  %24 = tail call i32 @SDL_AddAtomicInt_REAL(ptr noundef nonnull %5, i32 noundef -1) #11
  %25 = icmp eq i32 %24, 1
  br i1 %25, label %26, label %ReleaseCamera.exit

26:                                               ; preds = %21
  %27 = load ptr, ptr getelementptr inbounds nuw (i8, ptr @camera_driver, i64 88), align 8
  tail call void @SDL_LockRWLockForWriting_REAL(ptr noundef %27) #11
  %28 = load ptr, ptr getelementptr inbounds nuw (i8, ptr @camera_driver, i64 96), align 8
  %29 = getelementptr inbounds nuw i8, ptr %0, i64 108
  %30 = load i32, ptr %29, align 4
  %31 = zext i32 %30 to i64
  %32 = inttoptr i64 %31 to ptr
  %33 = tail call zeroext i1 @SDL_RemoveFromHashTable(ptr noundef %28, ptr noundef %32) #11
  br i1 %33, label %34, label %36

34:                                               ; preds = %26
  %35 = tail call i32 @SDL_AddAtomicInt_REAL(ptr noundef nonnull getelementptr inbounds nuw (i8, ptr @camera_driver, i64 128), i32 noundef -1) #11
  br label %36

36:                                               ; preds = %34, %26
  %37 = load ptr, ptr getelementptr inbounds nuw (i8, ptr @camera_driver, i64 88), align 8
  tail call void @SDL_UnlockRWLock_REAL(ptr noundef %37) #11
  br label %ReleaseCamera.exit

ReleaseCamera.exit:                               ; preds = %21, %36
  %38 = icmp ne ptr %22, null
  %or.cond = and i1 %9, %38
  br i1 %or.cond, label %39, label %44

39:                                               ; preds = %ReleaseCamera.exit
  %40 = load ptr, ptr getelementptr inbounds nuw (i8, ptr @camera_driver, i64 88), align 8
  tail call void @SDL_LockRWLockForWriting_REAL(ptr noundef %40) #11
  %41 = load ptr, ptr getelementptr inbounds nuw (i8, ptr @camera_driver, i64 120), align 8
  %42 = getelementptr inbounds nuw i8, ptr %41, i64 8
  store ptr %22, ptr %42, align 8
  store ptr %.0, ptr getelementptr inbounds nuw (i8, ptr @camera_driver, i64 120), align 8
  %43 = load ptr, ptr getelementptr inbounds nuw (i8, ptr @camera_driver, i64 88), align 8
  call void @SDL_UnlockRWLock_REAL(ptr noundef %43) #11
  br label %44

44:                                               ; preds = %39, %ReleaseCamera.exit
  call void @llvm.lifetime.end.p0(i64 16, ptr nonnull %2) #11
  br label %45

45:                                               ; preds = %1, %44
  ret void
}